target datalayout = "e-m:e-p270:32:32-p271:32:32-p272:64:64-i64:64-i128:128-f80:128-n8:16:32:64-S128"
target triple = "x86_64-unknown-linux-gnu"

%struct.ChardevBackend = type { i32, %union.anon.1 }
%union.anon.1 = type { %struct.ChardevFileWrapper }
%struct.ChardevFileWrapper = type { ptr }
%struct.ChardevVCWrapper = type { ptr }
%struct.ChardevVC = type { ptr, i8, i8, i8, i64, i8, i64, i8, i64, i8, i64 }

@.str.13 = private unnamed_addr constant [6 x i8] c"width\00", align 1
@.str.14 = private unnamed_addr constant [7 x i8] c"height\00", align 1
@.str.15 = private unnamed_addr constant [5 x i8] c"cols\00", align 1
@.str.16 = private unnamed_addr constant [5 x i8] c"rows\00", align 1

; Function Attrs: nounwind sspstrong uwtable
define internal ptr @qapi_ChardevVC_base(ptr noundef %obj) #0 {
entry:
  %obj.addr = alloca ptr, align 8
  store ptr %obj, ptr %obj.addr, align 8
  %0 = load ptr, ptr %obj.addr, align 8
  ret ptr %0
}

; Function Attrs: nounwind sspstrong uwtable
define internal void @vc_chr_parse(ptr noundef %opts, ptr noundef %backend, ptr noundef %errp) #0 {
entry:
  %opts.addr = alloca ptr, align 8
  %backend.addr = alloca ptr, align 8
  %errp.addr = alloca ptr, align 8
  %val = alloca i32, align 4
  %vc = alloca ptr, align 8
  store ptr %opts, ptr %opts.addr, align 8
  store ptr %backend, ptr %backend.addr, align 8
  store ptr %errp, ptr %errp.addr, align 8
  %0 = load ptr, ptr %backend.addr, align 8
  %type = getelementptr inbounds %struct.ChardevBackend, ptr %0, i32 0, i32 0
  store i32 16, ptr %type, align 8
  %call = call noalias ptr @g_malloc0_n(i64 noundef 1, i64 noundef 72) #8
  %1 = load ptr, ptr %backend.addr, align 8
  %u = getelementptr inbounds %struct.ChardevBackend, ptr %1, i32 0, i32 1
  %data = getelementptr inbounds %struct.ChardevVCWrapper, ptr %u, i32 0, i32 0
  store ptr %call, ptr %data, align 8
  store ptr %call, ptr %vc, align 8
  %2 = load ptr, ptr %opts.addr, align 8
  %3 = load ptr, ptr %vc, align 8
  %call1 = call ptr @qapi_ChardevVC_base(ptr noundef %3)
  call void @qemu_chr_parse_common(ptr noundef %2, ptr noundef %call1)
  %4 = load ptr, ptr %opts.addr, align 8
  %call2 = call i64 @qemu_opt_get_number(ptr noundef %4, ptr noundef @.str.13, i64 noundef 0)
  %conv = trunc i64 %call2 to i32
  store i32 %conv, ptr %val, align 4
  %5 = load i32, ptr %val, align 4
  %cmp = icmp ne i32 %5, 0
  br i1 %cmp, label %if.then, label %if.end

if.then:                                          ; preds = %entry
  %6 = load ptr, ptr %vc, align 8
  %has_width = getelementptr inbounds %struct.ChardevVC, ptr %6, i32 0, i32 3
  store i8 1, ptr %has_width, align 2
  %7 = load i32, ptr %val, align 4
  %conv4 = sext i32 %7 to i64
  %8 = load ptr, ptr %vc, align 8
  %width = getelementptr inbounds %struct.ChardevVC, ptr %8, i32 0, i32 4
  store i64 %conv4, ptr %width, align 8
  br label %if.end

if.end:                                           ; preds = %if.then, %entry
  %9 = load ptr, ptr %opts.addr, align 8
  %call5 = call i64 @qemu_opt_get_number(ptr noundef %9, ptr noundef @.str.14, i64 noundef 0)
  %conv6 = trunc i64 %call5 to i32
  store i32 %conv6, ptr %val, align 4
  %10 = load i32, ptr %val, align 4
  %cmp7 = icmp ne i32 %10, 0
  br i1 %cmp7, label %if.then9, label %if.end11

if.then9:                                         ; preds = %if.end
  %11 = load ptr, ptr %vc, align 8
  %has_height = getelementptr inbounds %struct.ChardevVC, ptr %11, i32 0, i32 5
  store i8 1, ptr %has_height, align 8
  %12 = load i32, ptr %val, align 4
  %conv10 = sext i32 %12 to i64
  %13 = load ptr, ptr %vc, align 8
  %height = getelementptr inbounds %struct.ChardevVC, ptr %13, i32 0, i32 6
  store i64 %conv10, ptr %height, align 8
  br label %if.end11

if.end11:                                         ; preds = %if.then9, %if.end
  %14 = load ptr, ptr %opts.addr, align 8
  %call12 = call i64 @qemu_opt_get_number(ptr noundef %14, ptr noundef @.str.15, i64 noundef 0)
  %conv13 = trunc i64 %call12 to i32
  store i32 %conv13, ptr %val, align 4
  %15 = load i32, ptr %val, align 4
  %cmp14 = icmp ne i32 %15, 0
  br i1 %cmp14, label %if.then16, label %if.end18

if.then16:                                        ; preds = %if.end11
  %16 = load ptr, ptr %vc, align 8
  %has_cols = getelementptr inbounds %struct.ChardevVC, ptr %16, i32 0, i32 7
  store i8 1, ptr %has_cols, align 8
  %17 = load i32, ptr %val, align 4
  %conv17 = sext i32 %17 to i64
  %18 = load ptr, ptr %vc, align 8
  %cols = getelementptr inbounds %struct.ChardevVC, ptr %18, i32 0, i32 8
  store i64 %conv17, ptr %cols, align 8
  br label %if.end18

if.end18:                                         ; preds = %if.then16, %if.end11
  %19 = load ptr, ptr %opts.addr, align 8
  %call19 = call i64 @qemu_opt_get_number(ptr noundef %19, ptr noundef @.str.16, i64 noundef 0)
  %conv20 = trunc i64 %call19 to i32
  store i32 %conv20, ptr %val, align 4
  %20 = load i32, ptr %val, align 4
  %cmp21 = icmp ne i32 %20, 0
  br i1 %cmp21, label %if.then23, label %if.end25

if.then23:                                        ; preds = %if.end18
  %21 = load ptr, ptr %vc, align 8
  %has_rows = getelementptr inbounds %struct.ChardevVC, ptr %21, i32 0, i32 9
  store i8 1, ptr %has_rows, align 8
  %22 = load i32, ptr %val, align 4
  %conv24 = sext i32 %22 to i64
  %23 = load ptr, ptr %vc, align 8
  %rows = getelementptr inbounds %struct.ChardevVC, ptr %23, i32 0, i32 10
  store i64 %conv24, ptr %rows, align 8
  br label %if.end25

if.end25:                                         ; preds = %if.then23, %if.end18
  ret void
}