; Function Attrs: nounwind sspstrong uwtable
define internal void @vc_chr_parse(ptr noundef %opts, ptr noundef writeonly captures(none) initializes((0, 4), (8, 16)) %backend, ptr readnone captures(none) %errp) #0 {
entry:
  store i32 16, ptr %backend, align 8
  %call = tail call noalias dereferenceable_or_null(72) ptr @g_malloc0_n(i64 noundef 1, i64 noundef 72) #13
  %u = getelementptr inbounds nuw i8, ptr %backend, i64 8
  store ptr %call, ptr %u, align 8
  tail call void @qemu_chr_parse_common(ptr noundef %opts, ptr noundef %call) #12
  %call2 = tail call i64 @qemu_opt_get_number(ptr noundef %opts, ptr noundef nonnull @.str.13, i64 noundef 0) #12
  %0 = and i64 %call2, 4294967295
  %cmp.not = icmp eq i64 %0, 0
  br i1 %cmp.not, label %if.end, label %if.then

if.then:                                          ; preds = %entry
  %has_width = getelementptr inbounds nuw i8, ptr %call, i64 10
  store i8 1, ptr %has_width, align 2
  %sext = shl i64 %call2, 32
  %conv4 = ashr exact i64 %sext, 32
  %width = getelementptr inbounds nuw i8, ptr %call, i64 16
  store i64 %conv4, ptr %width, align 8
  br label %if.end

if.end:                                           ; preds = %if.then, %entry
  %call5 = tail call i64 @qemu_opt_get_number(ptr noundef %opts, ptr noundef nonnull @.str.14, i64 noundef 0) #12
  %1 = and i64 %call5, 4294967295
  %cmp7.not = icmp eq i64 %1, 0
  br i1 %cmp7.not, label %if.end11, label %if.then9

if.then9:                                         ; preds = %if.end
  %has_height = getelementptr inbounds nuw i8, ptr %call, i64 24
  store i8 1, ptr %has_height, align 8
  %sext21 = shl i64 %call5, 32
  %conv10 = ashr exact i64 %sext21, 32
  %height = getelementptr inbounds nuw i8, ptr %call, i64 32
  store i64 %conv10, ptr %height, align 8
  br label %if.end11

if.end11:                                         ; preds = %if.then9, %if.end
  %call12 = tail call i64 @qemu_opt_get_number(ptr noundef %opts, ptr noundef nonnull @.str.15, i64 noundef 0) #12
  %2 = and i64 %call12, 4294967295
  %cmp14.not = icmp eq i64 %2, 0
  br i1 %cmp14.not, label %if.end18, label %if.then16

if.then16:                                        ; preds = %if.end11
  %has_cols = getelementptr inbounds nuw i8, ptr %call, i64 40
  store i8 1, ptr %has_cols, align 8
  %sext22 = shl i64 %call12, 32
  %conv17 = ashr exact i64 %sext22, 32
  %cols = getelementptr inbounds nuw i8, ptr %call, i64 48
  store i64 %conv17, ptr %cols, align 8
  br label %if.end18

if.end18:                                         ; preds = %if.then16, %if.end11
  %call19 = tail call i64 @qemu_opt_get_number(ptr noundef %opts, ptr noundef nonnull @.str.16, i64 noundef 0) #12
  %3 = and i64 %call19, 4294967295
  %cmp21.not = icmp eq i64 %3, 0
  br i1 %cmp21.not, label %if.end25, label %if.then23

if.then23:                                        ; preds = %if.end18
  %has_rows = getelementptr inbounds nuw i8, ptr %call, i64 56
  store i8 1, ptr %has_rows, align 8
  %sext23 = shl i64 %call19, 32
  %conv24 = ashr exact i64 %sext23, 32
  %rows = getelementptr inbounds nuw i8, ptr %call, i64 64
  store i64 %conv24, ptr %rows, align 8
  br label %if.end25

if.end25:                                         ; preds = %if.then23, %if.end18
  ret void
}